target datalayout = "e-m:e-p270:32:32-p271:32:32-p272:64:64-i64:64-i128:128-f80:128-n8:16:32:64-S128"
target triple = "x86_64-unknown-linux-gnu"

%"class.OpenColorIO_v2_4dev::OpCPU" = type { ptr }
%"class.OpenColorIO_v2_4dev::GammaMoncurveOpCPU" = type { %"class.OpenColorIO_v2_4dev::OpCPU", %"struct.OpenColorIO_v2_4dev::RendererParams", %"struct.OpenColorIO_v2_4dev::RendererParams", %"struct.OpenColorIO_v2_4dev::RendererParams", %"struct.OpenColorIO_v2_4dev::RendererParams" }
%"struct.OpenColorIO_v2_4dev::RendererParams" = type { float, float, float, float, float }

; Function Attrs: mustprogress nounwind uwtable
define linkonce_odr noundef float @_ZSt3powff(float noundef %__x, float noundef %__y) #5 comdat {
entry:
  %__x.addr = alloca float, align 4
  %__y.addr = alloca float, align 4
  store float %__x, ptr %__x.addr, align 4
  store float %__y, ptr %__y.addr, align 4
  %0 = load float, ptr %__x.addr, align 4
  %1 = load float, ptr %__y.addr, align 4
  %call = call float @powf(float noundef %0, float noundef %1) #3
  ret float %call
}

; Function Attrs: mustprogress uwtable
define hidden void @_ZNK19OpenColorIO_v2_4dev21GammaMoncurveOpCPUFwd5applyEPKvPvl(ptr noundef nonnull align 8 dereferenceable(88) %this, ptr noundef %inImg, ptr noundef %outImg, i64 noundef %numPixels) unnamed_addr #6 align 2 {
entry:
  %this.addr = alloca ptr, align 8
  %inImg.addr = alloca ptr, align 8
  %outImg.addr = alloca ptr, align 8
  %numPixels.addr = alloca i64, align 8
  %in = alloca ptr, align 8
  %out = alloca ptr, align 8
  %red = alloca [5 x float], align 16
  %grn = alloca [5 x float], align 16
  %blu = alloca [5 x float], align 16
  %alp = alloca [5 x float], align 16
  %idx = alloca i64, align 8
  %pixel = alloca [4 x float], align 16
  %data = alloca [4 x float], align 16
  store ptr %this, ptr %this.addr, align 8
  store ptr %inImg, ptr %inImg.addr, align 8
  store ptr %outImg, ptr %outImg.addr, align 8
  store i64 %numPixels, ptr %numPixels.addr, align 8
  %this1 = load ptr, ptr %this.addr, align 8
  %0 = load ptr, ptr %inImg.addr, align 8
  store ptr %0, ptr %in, align 8
  %1 = load ptr, ptr %outImg.addr, align 8
  store ptr %1, ptr %out, align 8
  %arrayinit.begin = getelementptr inbounds [5 x float], ptr %red, i64 0, i64 0
  %m_red = getelementptr inbounds %"class.OpenColorIO_v2_4dev::GammaMoncurveOpCPU", ptr %this1, i32 0, i32 1
  %scale = getelementptr inbounds %"struct.OpenColorIO_v2_4dev::RendererParams", ptr %m_red, i32 0, i32 4
  %2 = load float, ptr %scale, align 8
  store float %2, ptr %arrayinit.begin, align 4
  %arrayinit.element = getelementptr inbounds float, ptr %arrayinit.begin, i64 1
  %m_red2 = getelementptr inbounds %"class.OpenColorIO_v2_4dev::GammaMoncurveOpCPU", ptr %this1, i32 0, i32 1
  %offset = getelementptr inbounds %"struct.OpenColorIO_v2_4dev::RendererParams", ptr %m_red2, i32 0, i32 1
  %3 = load float, ptr %offset, align 4
  store float %3, ptr %arrayinit.element, align 4
  %arrayinit.element3 = getelementptr inbounds float, ptr %arrayinit.element, i64 1
  %m_red4 = getelementptr inbounds %"class.OpenColorIO_v2_4dev::GammaMoncurveOpCPU", ptr %this1, i32 0, i32 1
  %gamma = getelementptr inbounds %"struct.OpenColorIO_v2_4dev::RendererParams", ptr %m_red4, i32 0, i32 0
  %4 = load float, ptr %gamma, align 8
  store float %4, ptr %arrayinit.element3, align 4
  %arrayinit.element5 = getelementptr inbounds float, ptr %arrayinit.element3, i64 1
  %m_red6 = getelementptr inbounds %"class.OpenColorIO_v2_4dev::GammaMoncurveOpCPU", ptr %this1, i32 0, i32 1
  %breakPnt = getelementptr inbounds %"struct.OpenColorIO_v2_4dev::RendererParams", ptr %m_red6, i32 0, i32 2
  %5 = load float, ptr %breakPnt, align 8
  store float %5, ptr %arrayinit.element5, align 4
  %arrayinit.element7 = getelementptr inbounds float, ptr %arrayinit.element5, i64 1
  %m_red8 = getelementptr inbounds %"class.OpenColorIO_v2_4dev::GammaMoncurveOpCPU", ptr %this1, i32 0, i32 1
  %slope = getelementptr inbounds %"struct.OpenColorIO_v2_4dev::RendererParams", ptr %m_red8, i32 0, i32 3
  %6 = load float, ptr %slope, align 4
  store float %6, ptr %arrayinit.element7, align 4
  %arrayinit.begin9 = getelementptr inbounds [5 x float], ptr %grn, i64 0, i64 0
  %m_green = getelementptr inbounds %"class.OpenColorIO_v2_4dev::GammaMoncurveOpCPU", ptr %this1, i32 0, i32 2
  %scale10 = getelementptr inbounds %"struct.OpenColorIO_v2_4dev::RendererParams", ptr %m_green, i32 0, i32 4
  %7 = load float, ptr %scale10, align 4
  store float %7, ptr %arrayinit.begin9, align 4
  %arrayinit.element11 = getelementptr inbounds float, ptr %arrayinit.begin9, i64 1
  %m_green12 = getelementptr inbounds %"class.OpenColorIO_v2_4dev::GammaMoncurveOpCPU", ptr %this1, i32 0, i32 2
  %offset13 = getelementptr inbounds %"struct.OpenColorIO_v2_4dev::RendererParams", ptr %m_green12, i32 0, i32 1
  %8 = load float, ptr %offset13, align 4
  store float %8, ptr %arrayinit.element11, align 4
  %arrayinit.element14 = getelementptr inbounds float, ptr %arrayinit.element11, i64 1
  %m_green15 = getelementptr inbounds %"class.OpenColorIO_v2_4dev::GammaMoncurveOpCPU", ptr %this1, i32 0, i32 2
  %gamma16 = getelementptr inbounds %"struct.OpenColorIO_v2_4dev::RendererParams", ptr %m_green15, i32 0, i32 0
  %9 = load float, ptr %gamma16, align 4
  store float %9, ptr %arrayinit.element14, align 4
  %arrayinit.element17 = getelementptr inbounds float, ptr %arrayinit.element14, i64 1
  %m_green18 = getelementptr inbounds %"class.OpenColorIO_v2_4dev::GammaMoncurveOpCPU", ptr %this1, i32 0, i32 2
  %breakPnt19 = getelementptr inbounds %"struct.OpenColorIO_v2_4dev::RendererParams", ptr %m_green18, i32 0, i32 2
  %10 = load float, ptr %breakPnt19, align 4
  store float %10, ptr %arrayinit.element17, align 4
  %arrayinit.element20 = getelementptr inbounds float, ptr %arrayinit.element17, i64 1
  %m_green21 = getelementptr inbounds %"class.OpenColorIO_v2_4dev::GammaMoncurveOpCPU", ptr %this1, i32 0, i32 2
  %slope22 = getelementptr inbounds %"struct.OpenColorIO_v2_4dev::RendererParams", ptr %m_green21, i32 0, i32 3
  %11 = load float, ptr %slope22, align 4
  store float %11, ptr %arrayinit.element20, align 4
  %arrayinit.begin23 = getelementptr inbounds [5 x float], ptr %blu, i64 0, i64 0
  %m_blue = getelementptr inbounds %"class.OpenColorIO_v2_4dev::GammaMoncurveOpCPU", ptr %this1, i32 0, i32 3
  %scale24 = getelementptr inbounds %"struct.OpenColorIO_v2_4dev::RendererParams", ptr %m_blue, i32 0, i32 4
  %12 = load float, ptr %scale24, align 8
  store float %12, ptr %arrayinit.begin23, align 4
  %arrayinit.element25 = getelementptr inbounds float, ptr %arrayinit.begin23, i64 1
  %m_blue26 = getelementptr inbounds %"class.OpenColorIO_v2_4dev::GammaMoncurveOpCPU", ptr %this1, i32 0, i32 3
  %offset27 = getelementptr inbounds %"struct.OpenColorIO_v2_4dev::RendererParams", ptr %m_blue26, i32 0, i32 1
  %13 = load float, ptr %offset27, align 4
  store float %13, ptr %arrayinit.element25, align 4
  %arrayinit.element28 = getelementptr inbounds float, ptr %arrayinit.element25, i64 1
  %m_blue29 = getelementptr inbounds %"class.OpenColorIO_v2_4dev::GammaMoncurveOpCPU", ptr %this1, i32 0, i32 3
  %gamma30 = getelementptr inbounds %"struct.OpenColorIO_v2_4dev::RendererParams", ptr %m_blue29, i32 0, i32 0
  %14 = load float, ptr %gamma30, align 8
  store float %14, ptr %arrayinit.element28, align 4
  %arrayinit.element31 = getelementptr inbounds float, ptr %arrayinit.element28, i64 1
  %m_blue32 = getelementptr inbounds %"class.OpenColorIO_v2_4dev::GammaMoncurveOpCPU", ptr %this1, i32 0, i32 3
  %breakPnt33 = getelementptr inbounds %"struct.OpenColorIO_v2_4dev::RendererParams", ptr %m_blue32, i32 0, i32 2
  %15 = load float, ptr %breakPnt33, align 8
  store float %15, ptr %arrayinit.element31, align 4
  %arrayinit.element34 = getelementptr inbounds float, ptr %arrayinit.element31, i64 1
  %m_blue35 = getelementptr inbounds %"class.OpenColorIO_v2_4dev::GammaMoncurveOpCPU", ptr %this1, i32 0, i32 3
  %slope36 = getelementptr inbounds %"struct.OpenColorIO_v2_4dev::RendererParams", ptr %m_blue35, i32 0, i32 3
  %16 = load float, ptr %slope36, align 4
  store float %16, ptr %arrayinit.element34, align 4
  %arrayinit.begin37 = getelementptr inbounds [5 x float], ptr %alp, i64 0, i64 0
  %m_alpha = getelementptr inbounds %"class.OpenColorIO_v2_4dev::GammaMoncurveOpCPU", ptr %this1, i32 0, i32 4
  %scale38 = getelementptr inbounds %"struct.OpenColorIO_v2_4dev::RendererParams", ptr %m_alpha, i32 0, i32 4
  %17 = load float, ptr %scale38, align 4
  store float %17, ptr %arrayinit.begin37, align 4
  %arrayinit.element39 = getelementptr inbounds float, ptr %arrayinit.begin37, i64 1
  %m_alpha40 = getelementptr inbounds %"class.OpenColorIO_v2_4dev::GammaMoncurveOpCPU", ptr %this1, i32 0, i32 4
  %offset41 = getelementptr inbounds %"struct.OpenColorIO_v2_4dev::RendererParams", ptr %m_alpha40, i32 0, i32 1
  %18 = load float, ptr %offset41, align 4
  store float %18, ptr %arrayinit.element39, align 4
  %arrayinit.element42 = getelementptr inbounds float, ptr %arrayinit.element39, i64 1
  %m_alpha43 = getelementptr inbounds %"class.OpenColorIO_v2_4dev::GammaMoncurveOpCPU", ptr %this1, i32 0, i32 4
  %gamma44 = getelementptr inbounds %"struct.OpenColorIO_v2_4dev::RendererParams", ptr %m_alpha43, i32 0, i32 0
  %19 = load float, ptr %gamma44, align 4
  store float %19, ptr %arrayinit.element42, align 4
  %arrayinit.element45 = getelementptr inbounds float, ptr %arrayinit.element42, i64 1
  %m_alpha46 = getelementptr inbounds %"class.OpenColorIO_v2_4dev::GammaMoncurveOpCPU", ptr %this1, i32 0, i32 4
  %breakPnt47 = getelementptr inbounds %"struct.OpenColorIO_v2_4dev::RendererParams", ptr %m_alpha46, i32 0, i32 2
  %20 = load float, ptr %breakPnt47, align 4
  store float %20, ptr %arrayinit.element45, align 4
  %arrayinit.element48 = getelementptr inbounds float, ptr %arrayinit.element45, i64 1
  %m_alpha49 = getelementptr inbounds %"class.OpenColorIO_v2_4dev::GammaMoncurveOpCPU", ptr %this1, i32 0, i32 4
  %slope50 = getelementptr inbounds %"struct.OpenColorIO_v2_4dev::RendererParams", ptr %m_alpha49, i32 0, i32 3
  %21 = load float, ptr %slope50, align 4
  store float %21, ptr %arrayinit.element48, align 4
  store i64 0, ptr %idx, align 8
  br label %for.cond

for.cond:                                         ; preds = %for.inc, %entry
  %22 = load i64, ptr %idx, align 8
  %23 = load i64, ptr %numPixels.addr, align 8
  %cmp = icmp slt i64 %22, %23
  br i1 %cmp, label %for.body, label %for.end

for.body:                                         ; preds = %for.cond
  %arrayinit.begin51 = getelementptr inbounds [4 x float], ptr %pixel, i64 0, i64 0
  %24 = load ptr, ptr %in, align 8
  %arrayidx = getelementptr inbounds float, ptr %24, i64 0
  %25 = load float, ptr %arrayidx, align 4
  store float %25, ptr %arrayinit.begin51, align 4
  %arrayinit.element52 = getelementptr inbounds float, ptr %arrayinit.begin51, i64 1
  %26 = load ptr, ptr %in, align 8
  %arrayidx53 = getelementptr inbounds float, ptr %26, i64 1
  %27 = load float, ptr %arrayidx53, align 4
  store float %27, ptr %arrayinit.element52, align 4
  %arrayinit.element54 = getelementptr inbounds float, ptr %arrayinit.element52, i64 1
  %28 = load ptr, ptr %in, align 8
  %arrayidx55 = getelementptr inbounds float, ptr %28, i64 2
  %29 = load float, ptr %arrayidx55, align 4
  store float %29, ptr %arrayinit.element54, align 4
  %arrayinit.element56 = getelementptr inbounds float, ptr %arrayinit.element54, i64 1
  %30 = load ptr, ptr %in, align 8
  %arrayidx57 = getelementptr inbounds float, ptr %30, i64 3
  %31 = load float, ptr %arrayidx57, align 4
  store float %31, ptr %arrayinit.element56, align 4
  %arrayinit.begin58 = getelementptr inbounds [4 x float], ptr %data, i64 0, i64 0
  %arrayidx59 = getelementptr inbounds [4 x float], ptr %pixel, i64 0, i64 0
  %32 = load float, ptr %arrayidx59, align 16
  %arrayidx60 = getelementptr inbounds [5 x float], ptr %red, i64 0, i64 0
  %33 = load float, ptr %arrayidx60, align 16
  %arrayidx61 = getelementptr inbounds [5 x float], ptr %red, i64 0, i64 1
  %34 = load float, ptr %arrayidx61, align 4
  %35 = call float @llvm.fmuladd.f32(float %32, float %33, float %34)
  %arrayidx62 = getelementptr inbounds [5 x float], ptr %red, i64 0, i64 2
  %36 = load float, ptr %arrayidx62, align 8
  %call = call noundef float @_ZSt3powff(float noundef %35, float noundef %36)
  store float %call, ptr %arrayinit.begin58, align 4
  %arrayinit.element63 = getelementptr inbounds float, ptr %arrayinit.begin58, i64 1
  %arrayidx64 = getelementptr inbounds [4 x float], ptr %pixel, i64 0, i64 1
  %37 = load float, ptr %arrayidx64, align 4
  %arrayidx65 = getelementptr inbounds [5 x float], ptr %grn, i64 0, i64 0
  %38 = load float, ptr %arrayidx65, align 16
  %arrayidx66 = getelementptr inbounds [5 x float], ptr %grn, i64 0, i64 1
  %39 = load float, ptr %arrayidx66, align 4
  %40 = call float @llvm.fmuladd.f32(float %37, float %38, float %39)
  %arrayidx67 = getelementptr inbounds [5 x float], ptr %grn, i64 0, i64 2
  %41 = load float, ptr %arrayidx67, align 8
  %call68 = call noundef float @_ZSt3powff(float noundef %40, float noundef %41)
  store float %call68, ptr %arrayinit.element63, align 4
  %arrayinit.element69 = getelementptr inbounds float, ptr %arrayinit.element63, i64 1
  %arrayidx70 = getelementptr inbounds [4 x float], ptr %pixel, i64 0, i64 2
  %42 = load float, ptr %arrayidx70, align 8
  %arrayidx71 = getelementptr inbounds [5 x float], ptr %blu, i64 0, i64 0
  %43 = load float, ptr %arrayidx71, align 16
  %arrayidx72 = getelementptr inbounds [5 x float], ptr %blu, i64 0, i64 1
  %44 = load float, ptr %arrayidx72, align 4
  %45 = call float @llvm.fmuladd.f32(float %42, float %43, float %44)
  %arrayidx73 = getelementptr inbounds [5 x float], ptr %blu, i64 0, i64 2
  %46 = load float, ptr %arrayidx73, align 8
  %call74 = call noundef float @_ZSt3powff(float noundef %45, float noundef %46)
  store float %call74, ptr %arrayinit.element69, align 4
  %arrayinit.element75 = getelementptr inbounds float, ptr %arrayinit.element69, i64 1
  %arrayidx76 = getelementptr inbounds [4 x float], ptr %pixel, i64 0, i64 3
  %47 = load float, ptr %arrayidx76, align 4
  %arrayidx77 = getelementptr inbounds [5 x float], ptr %alp, i64 0, i64 0
  %48 = load float, ptr %arrayidx77, align 16
  %arrayidx78 = getelementptr inbounds [5 x float], ptr %alp, i64 0, i64 1
  %49 = load float, ptr %arrayidx78, align 4
  %50 = call float @llvm.fmuladd.f32(float %47, float %48, float %49)
  %arrayidx79 = getelementptr inbounds [5 x float], ptr %alp, i64 0, i64 2
  %51 = load float, ptr %arrayidx79, align 8
  %call80 = call noundef float @_ZSt3powff(float noundef %50, float noundef %51)
  store float %call80, ptr %arrayinit.element75, align 4
  %arrayidx81 = getelementptr inbounds [4 x float], ptr %pixel, i64 0, i64 0
  %52 = load float, ptr %arrayidx81, align 16
  %arrayidx82 = getelementptr inbounds [5 x float], ptr %red, i64 0, i64 3
  %53 = load float, ptr %arrayidx82, align 4
  %cmp83 = fcmp ole float %52, %53
  br i1 %cmp83, label %cond.true, label %cond.false

cond.true:                                        ; preds = %for.body
  %arrayidx84 = getelementptr inbounds [4 x float], ptr %pixel, i64 0, i64 0
  %54 = load float, ptr %arrayidx84, align 16
  %arrayidx85 = getelementptr inbounds [5 x float], ptr %red, i64 0, i64 4
  %55 = load float, ptr %arrayidx85, align 16
  %mul = fmul float %54, %55
  br label %cond.end

cond.false:                                       ; preds = %for.body
  %arrayidx86 = getelementptr inbounds [4 x float], ptr %data, i64 0, i64 0
  %56 = load float, ptr %arrayidx86, align 16
  br label %cond.end

cond.end:                                         ; preds = %cond.false, %cond.true
  %cond = phi float [ %mul, %cond.true ], [ %56, %cond.false ]
  %57 = load ptr, ptr %out, align 8
  %arrayidx87 = getelementptr inbounds float, ptr %57, i64 0
  store float %cond, ptr %arrayidx87, align 4
  %arrayidx88 = getelementptr inbounds [4 x float], ptr %pixel, i64 0, i64 1
  %58 = load float, ptr %arrayidx88, align 4
  %arrayidx89 = getelementptr inbounds [5 x float], ptr %grn, i64 0, i64 3
  %59 = load float, ptr %arrayidx89, align 4
  %cmp90 = fcmp ole float %58, %59
  br i1 %cmp90, label %cond.true91, label %cond.false95

cond.true91:                                      ; preds = %cond.end
  %arrayidx92 = getelementptr inbounds [4 x float], ptr %pixel, i64 0, i64 1
  %60 = load float, ptr %arrayidx92, align 4
  %arrayidx93 = getelementptr inbounds [5 x float], ptr %grn, i64 0, i64 4
  %61 = load float, ptr %arrayidx93, align 16
  %mul94 = fmul float %60, %61
  br label %cond.end97

cond.false95:                                     ; preds = %cond.end
  %arrayidx96 = getelementptr inbounds [4 x float], ptr %data, i64 0, i64 1
  %62 = load float, ptr %arrayidx96, align 4
  br label %cond.end97

cond.end97:                                       ; preds = %cond.false95, %cond.true91
  %cond98 = phi float [ %mul94, %cond.true91 ], [ %62, %cond.false95 ]
  %63 = load ptr, ptr %out, align 8
  %arrayidx99 = getelementptr inbounds float, ptr %63, i64 1
  store float %cond98, ptr %arrayidx99, align 4
  %arrayidx100 = getelementptr inbounds [4 x float], ptr %pixel, i64 0, i64 2
  %64 = load float, ptr %arrayidx100, align 8
  %arrayidx101 = getelementptr inbounds [5 x float], ptr %blu, i64 0, i64 3
  %65 = load float, ptr %arrayidx101, align 4
  %cmp102 = fcmp ole float %64, %65
  br i1 %cmp102, label %cond.true103, label %cond.false107

cond.true103:                                     ; preds = %cond.end97
  %arrayidx104 = getelementptr inbounds [4 x float], ptr %pixel, i64 0, i64 2
  %66 = load float, ptr %arrayidx104, align 8
  %arrayidx105 = getelementptr inbounds [5 x float], ptr %blu, i64 0, i64 4
  %67 = load float, ptr %arrayidx105, align 16
  %mul106 = fmul float %66, %67
  br label %cond.end109

cond.false107:                                    ; preds = %cond.end97
  %arrayidx108 = getelementptr inbounds [4 x float], ptr %data, i64 0, i64 2
  %68 = load float, ptr %arrayidx108, align 8
  br label %cond.end109

cond.end109:                                      ; preds = %cond.false107, %cond.true103
  %cond110 = phi float [ %mul106, %cond.true103 ], [ %68, %cond.false107 ]
  %69 = load ptr, ptr %out, align 8
  %arrayidx111 = getelementptr inbounds float, ptr %69, i64 2
  store float %cond110, ptr %arrayidx111, align 4
  %arrayidx112 = getelementptr inbounds [4 x float], ptr %pixel, i64 0, i64 3
  %70 = load float, ptr %arrayidx112, align 4
  %arrayidx113 = getelementptr inbounds [5 x float], ptr %alp, i64 0, i64 3
  %71 = load float, ptr %arrayidx113, align 4
  %cmp114 = fcmp ole float %70, %71
  br i1 %cmp114, label %cond.true115, label %cond.false119

cond.true115:                                     ; preds = %cond.end109
  %arrayidx116 = getelementptr inbounds [4 x float], ptr %pixel, i64 0, i64 3
  %72 = load float, ptr %arrayidx116, align 4
  %arrayidx117 = getelementptr inbounds [5 x float], ptr %alp, i64 0, i64 4
  %73 = load float, ptr %arrayidx117, align 16
  %mul118 = fmul float %72, %73
  br label %cond.end121

cond.false119:                                    ; preds = %cond.end109
  %arrayidx120 = getelementptr inbounds [4 x float], ptr %data, i64 0, i64 3
  %74 = load float, ptr %arrayidx120, align 4
  br label %cond.end121

cond.end121:                                      ; preds = %cond.false119, %cond.true115
  %cond122 = phi float [ %mul118, %cond.true115 ], [ %74, %cond.false119 ]
  %75 = load ptr, ptr %out, align 8
  %arrayidx123 = getelementptr inbounds float, ptr %75, i64 3
  store float %cond122, ptr %arrayidx123, align 4
  %76 = load ptr, ptr %in, align 8
  %add.ptr = getelementptr inbounds float, ptr %76, i64 4
  store ptr %add.ptr, ptr %in, align 8
  %77 = load ptr, ptr %out, align 8
  %add.ptr124 = getelementptr inbounds float, ptr %77, i64 4
  store ptr %add.ptr124, ptr %out, align 8
  br label %for.inc

for.inc:                                          ; preds = %cond.end121
  %78 = load i64, ptr %idx, align 8
  %inc = add nsw i64 %78, 1
  store i64 %inc, ptr %idx, align 8
  br label %for.cond, !llvm.loop !12

for.end:                                          ; preds = %for.cond
  ret void
}