; Function Attrs: mustprogress nofree nounwind memory(readwrite, inaccessiblemem: write) uwtable
define hidden void @_ZNK19OpenColorIO_v2_4dev21GammaMoncurveOpCPUFwd5applyEPKvPvl(ptr nocapture noundef nonnull readonly align 8 dereferenceable(88) %this, ptr nocapture noundef readonly %inImg, ptr nocapture noundef writeonly %outImg, i64 noundef %numPixels) unnamed_addr #7 align 2 {
entry:
  %m_red = getelementptr inbounds i8, ptr %this, i64 8
  %scale = getelementptr inbounds i8, ptr %this, i64 24
  %0 = load float, ptr %scale, align 8
  %offset = getelementptr inbounds i8, ptr %this, i64 12
  %1 = load float, ptr %offset, align 4
  %2 = load float, ptr %m_red, align 8
  %breakPnt = getelementptr inbounds i8, ptr %this, i64 16
  %3 = load <4 x float>, ptr %breakPnt, align 8
  %slope = getelementptr inbounds i8, ptr %this, i64 20
  %4 = load <4 x float>, ptr %slope, align 4
  %m_green = getelementptr inbounds i8, ptr %this, i64 28
  %scale10 = getelementptr inbounds i8, ptr %this, i64 44
  %5 = load float, ptr %scale10, align 4
  %offset13 = getelementptr inbounds i8, ptr %this, i64 32
  %6 = load float, ptr %offset13, align 8
  %7 = load float, ptr %m_green, align 4
  %breakPnt19 = getelementptr inbounds i8, ptr %this, i64 36
  %8 = load float, ptr %breakPnt19, align 4
  %slope22 = getelementptr inbounds i8, ptr %this, i64 40
  %9 = load float, ptr %slope22, align 8
  %m_blue = getelementptr inbounds i8, ptr %this, i64 48
  %scale24 = getelementptr inbounds i8, ptr %this, i64 64
  %10 = load float, ptr %scale24, align 8
  %offset27 = getelementptr inbounds i8, ptr %this, i64 52
  %11 = load float, ptr %offset27, align 4
  %12 = load float, ptr %m_blue, align 8
  %breakPnt33 = getelementptr inbounds i8, ptr %this, i64 56
  %13 = load float, ptr %breakPnt33, align 8
  %slope36 = getelementptr inbounds i8, ptr %this, i64 60
  %14 = load float, ptr %slope36, align 4
  %m_alpha = getelementptr inbounds i8, ptr %this, i64 68
  %scale38 = getelementptr inbounds i8, ptr %this, i64 84
  %15 = load float, ptr %scale38, align 4
  %offset41 = getelementptr inbounds i8, ptr %this, i64 72
  %16 = load float, ptr %offset41, align 8
  %17 = load float, ptr %m_alpha, align 4
  %breakPnt47 = getelementptr inbounds i8, ptr %this, i64 76
  %18 = load float, ptr %breakPnt47, align 4
  %slope50 = getelementptr inbounds i8, ptr %this, i64 80
  %19 = load float, ptr %slope50, align 8
  %cmp21 = icmp sgt i64 %numPixels, 0
  br i1 %cmp21, label %for.body.preheader, label %for.end

for.body.preheader:                               ; preds = %entry
  %20 = insertelement <4 x float> %3, float %8, i64 1
  %21 = insertelement <4 x float> %20, float %13, i64 2
  %22 = insertelement <4 x float> %21, float %18, i64 3
  %23 = insertelement <4 x float> %4, float %9, i64 1
  %24 = insertelement <4 x float> %23, float %14, i64 2
  %25 = insertelement <4 x float> %24, float %19, i64 3
  br label %for.body

for.body:                                         ; preds = %for.body.preheader, %for.body
  %in.024 = phi ptr [ %add.ptr, %for.body ], [ %inImg, %for.body.preheader ]
  %out.023 = phi ptr [ %add.ptr124, %for.body ], [ %outImg, %for.body.preheader ]
  %idx.022 = phi i64 [ %inc, %for.body ], [ 0, %for.body.preheader ]
  %26 = load <4 x float>, ptr %in.024, align 4
  %27 = extractelement <4 x float> %26, i64 0
  %28 = tail call float @llvm.fmuladd.f32(float %27, float %0, float %1)
  %call.i = tail call noundef float @powf(float noundef %28, float noundef %2) #19
  %29 = extractelement <4 x float> %26, i64 1
  %30 = tail call float @llvm.fmuladd.f32(float %29, float %5, float %6)
  %call.i18 = tail call noundef float @powf(float noundef %30, float noundef %7) #19
  %31 = extractelement <4 x float> %26, i64 2
  %32 = tail call float @llvm.fmuladd.f32(float %31, float %10, float %11)
  %call.i19 = tail call noundef float @powf(float noundef %32, float noundef %12) #19
  %33 = extractelement <4 x float> %26, i64 3
  %34 = tail call float @llvm.fmuladd.f32(float %33, float %15, float %16)
  %call.i20 = tail call noundef float @powf(float noundef %34, float noundef %17) #19
  %35 = fcmp ole <4 x float> %26, %22
  %36 = fmul <4 x float> %25, %26
  %37 = insertelement <4 x float> poison, float %call.i, i64 0
  %38 = insertelement <4 x float> %37, float %call.i18, i64 1
  %39 = insertelement <4 x float> %38, float %call.i19, i64 2
  %40 = insertelement <4 x float> %39, float %call.i20, i64 3
  %41 = select <4 x i1> %35, <4 x float> %36, <4 x float> %40
  store <4 x float> %41, ptr %out.023, align 4
  %add.ptr = getelementptr inbounds i8, ptr %in.024, i64 16
  %add.ptr124 = getelementptr inbounds i8, ptr %out.023, i64 16
  %inc = add nuw nsw i64 %idx.022, 1
  %exitcond.not = icmp eq i64 %inc, %numPixels
  br i1 %exitcond.not, label %for.end, label %for.body, !llvm.loop !55

for.end:                                          ; preds = %for.body, %entry
  ret void
}